; Function Attrs: mustprogress uwtable
define void @_ZN3g2o15SparseOptimizer6updateEPKd(ptr nocapture noundef nonnull readonly align 8 dereferenceable(409) %0, ptr noundef %1) local_unnamed_addr #3 align 2 {
  %3 = getelementptr inbounds nuw i8, ptr %0, i64 304
  %4 = getelementptr inbounds i8, ptr %0, i64 312
  %5 = load ptr, ptr %4, align 8
  %6 = load ptr, ptr %3, align 8
  %.not = icmp eq ptr %5, %6
  br i1 %.not, label %._crit_edge, label %.lr.ph

.lr.ph:                                           ; preds = %2, %.lr.ph
  %7 = phi ptr [ %22, %.lr.ph ], [ %6, %2 ]
  %.09 = phi ptr [ %19, %.lr.ph ], [ %1, %2 ]
  %.078 = phi i64 [ %20, %.lr.ph ], [ 0, %2 ]
  %8 = getelementptr inbounds ptr, ptr %7, i64 %.078
  %9 = load ptr, ptr %8, align 8
  %10 = load ptr, ptr %9, align 8
  %11 = getelementptr inbounds i8, ptr %10, i64 224
  %12 = load ptr, ptr %11, align 8
  tail call void %12(ptr noundef nonnull align 8 dereferenceable(128) %9, ptr noundef %.09)
  %13 = load ptr, ptr %9, align 8
  %14 = getelementptr inbounds i8, ptr %13, i64 216
  %15 = load ptr, ptr %14, align 8
  tail call void %15(ptr noundef nonnull align 8 dereferenceable(128) %9)
  %16 = getelementptr inbounds nuw i8, ptr %9, i64 104
  %17 = load i32, ptr %16, align 8
  %18 = sext i32 %17 to i64
  %19 = getelementptr inbounds double, ptr %.09, i64 %18
  %20 = add nuw i64 %.078, 1
  %21 = load ptr, ptr %4, align 8
  %22 = load ptr, ptr %3, align 8
  %23 = ptrtoint ptr %21 to i64
  %24 = ptrtoint ptr %22 to i64
  %25 = sub i64 %23, %24
  %26 = ashr exact i64 %25, 3
  %27 = icmp ult i64 %20, %26
  br i1 %27, label %.lr.ph, label %._crit_edge, !llvm.loop !37

._crit_edge:                                      ; preds = %.lr.ph, %2
  ret void
}